target datalayout = "e-m:e-p270:32:32-p271:32:32-p272:64:64-i64:64-i128:128-f80:128-n8:16:32:64-S128"
target triple = "x86_64-pc-linux-gnu"

%struct.jv = type { i8, i8, i16, i32, %union.anon }
%union.anon = type { ptr }
%struct.jv_refcnt = type { i32 }
%struct.jvp_invalid = type { %struct.jv_refcnt, %struct.jv }
%struct.decNumber = type { i32, i32, i8, [1 x i16] }
%struct.jvp_literal_number = type { %struct.jv_refcnt, double, ptr, %struct.decNumber }
%struct.jvp_array = type { %struct.jv_refcnt, i32, i32, [0 x %struct.jv] }
%struct.jvp_string = type { %struct.jv_refcnt, i32, i32, i32, [0 x i8] }
%struct.jvp_object = type { %struct.jv_refcnt, i32, [0 x %struct.object_slot] }
%struct.object_slot = type { i32, i32, %struct.jv, %struct.jv }

; Function Attrs: nounwind uwtable
define internal ptr @jvp_literal_number_ptr(i64 %0, ptr %1) #0 {
  %3 = alloca %struct.jv, align 8
  %4 = getelementptr inbounds nuw { i64, ptr }, ptr %3, i32 0, i32 0
  store i64 %0, ptr %4, align 8
  %5 = getelementptr inbounds nuw { i64, ptr }, ptr %3, i32 0, i32 1
  store ptr %1, ptr %5, align 8
  %6 = getelementptr inbounds nuw %struct.jv, ptr %3, i32 0, i32 4
  %7 = load ptr, ptr %6, align 8, !tbaa !12
  ret ptr %7
}

; Function Attrs: nounwind uwtable
define internal ptr @jvp_object_ptr(i64 %0, ptr %1) #0 {
  %3 = alloca %struct.jv, align 8
  %4 = getelementptr inbounds nuw { i64, ptr }, ptr %3, i32 0, i32 0
  store i64 %0, ptr %4, align 8
  %5 = getelementptr inbounds nuw { i64, ptr }, ptr %3, i32 0, i32 1
  store ptr %1, ptr %5, align 8
  %6 = getelementptr inbounds nuw %struct.jv, ptr %3, i32 0, i32 4
  %7 = load ptr, ptr %6, align 8, !tbaa !12
  ret ptr %7
}

; Function Attrs: nounwind uwtable
define dso_local i32 @jv_get_kind(i64 %0, ptr %1) #0 {
  %3 = alloca %struct.jv, align 8
  %4 = getelementptr inbounds nuw { i64, ptr }, ptr %3, i32 0, i32 0
  store i64 %0, ptr %4, align 8
  %5 = getelementptr inbounds nuw { i64, ptr }, ptr %3, i32 0, i32 1
  store ptr %1, ptr %5, align 8
  %6 = getelementptr inbounds nuw %struct.jv, ptr %3, i32 0, i32 0
  %7 = load i8, ptr %6, align 8, !tbaa !4
  %8 = zext i8 %7 to i32
  %9 = and i32 %8, 15
  ret i32 %9
}

; Function Attrs: nounwind uwtable
define internal ptr @jvp_object_get_slot(i64 %0, ptr %1, i32 noundef %2) #0 {
  %4 = alloca ptr, align 8
  %5 = alloca %struct.jv, align 8
  %6 = alloca i32, align 4
  %7 = getelementptr inbounds nuw { i64, ptr }, ptr %5, i32 0, i32 0
  store i64 %0, ptr %7, align 8
  %8 = getelementptr inbounds nuw { i64, ptr }, ptr %5, i32 0, i32 1
  store ptr %1, ptr %8, align 8
  store i32 %2, ptr %6, align 4, !tbaa !10
  %9 = load i32, ptr %6, align 4, !tbaa !10
  %10 = icmp eq i32 %9, -1
  br i1 %10, label %11, label %12

11:                                               ; preds = %3
  store ptr null, ptr %4, align 8
  br label %22

12:                                               ; preds = %3
  %13 = getelementptr inbounds nuw { i64, ptr }, ptr %5, i32 0, i32 0
  %14 = load i64, ptr %13, align 8
  %15 = getelementptr inbounds nuw { i64, ptr }, ptr %5, i32 0, i32 1
  %16 = load ptr, ptr %15, align 8
  %17 = call ptr @jvp_object_ptr(i64 %14, ptr %16)
  %18 = getelementptr inbounds nuw %struct.jvp_object, ptr %17, i32 0, i32 2
  %19 = load i32, ptr %6, align 4, !tbaa !10
  %20 = sext i32 %19 to i64
  %21 = getelementptr inbounds [0 x %struct.object_slot], ptr %18, i64 0, i64 %20
  store ptr %21, ptr %4, align 8
  br label %22

22:                                               ; preds = %12, %11
  %23 = load ptr, ptr %4, align 8
  ret ptr %23
}

; Function Attrs: nounwind uwtable
define internal i32 @jvp_object_size(i64 %0, ptr %1) #0 {
  %3 = alloca %struct.jv, align 8
  %4 = getelementptr inbounds nuw { i64, ptr }, ptr %3, i32 0, i32 0
  store i64 %0, ptr %4, align 8
  %5 = getelementptr inbounds nuw { i64, ptr }, ptr %3, i32 0, i32 1
  store ptr %1, ptr %5, align 8
  %6 = getelementptr inbounds nuw %struct.jv, ptr %3, i32 0, i32 3
  %7 = load i32, ptr %6, align 4, !tbaa !19
  ret i32 %7
}

; Function Attrs: nounwind uwtable
define internal ptr @jvp_string_ptr(i64 %0, ptr %1) #0 {
  %3 = alloca %struct.jv, align 8
  %4 = getelementptr inbounds nuw { i64, ptr }, ptr %3, i32 0, i32 0
  store i64 %0, ptr %4, align 8
  %5 = getelementptr inbounds nuw { i64, ptr }, ptr %3, i32 0, i32 1
  store ptr %1, ptr %5, align 8
  %6 = getelementptr inbounds nuw %struct.jv, ptr %3, i32 0, i32 4
  %7 = load ptr, ptr %6, align 8, !tbaa !12
  ret ptr %7
}

; Function Attrs: nounwind uwtable
define internal ptr @jvp_array_ptr(i64 %0, ptr %1) #0 {
  %3 = alloca %struct.jv, align 8
  %4 = getelementptr inbounds nuw { i64, ptr }, ptr %3, i32 0, i32 0
  store i64 %0, ptr %4, align 8
  %5 = getelementptr inbounds nuw { i64, ptr }, ptr %3, i32 0, i32 1
  store ptr %1, ptr %5, align 8
  %6 = getelementptr inbounds nuw %struct.jv, ptr %3, i32 0, i32 4
  %7 = load ptr, ptr %6, align 8, !tbaa !12
  ret ptr %7
}

; Function Attrs: nounwind uwtable
define internal i32 @jvp_refcnt_dec(ptr noundef %0) #0 {
  %2 = alloca ptr, align 8
  store ptr %0, ptr %2, align 8, !tbaa !83
  %3 = load ptr, ptr %2, align 8, !tbaa !83
  %4 = getelementptr inbounds nuw %struct.jv_refcnt, ptr %3, i32 0, i32 0
  %5 = load i32, ptr %4, align 4, !tbaa !68
  %6 = add nsw i32 %5, -1
  store i32 %6, ptr %4, align 4, !tbaa !68
  %7 = load ptr, ptr %2, align 8, !tbaa !83
  %8 = getelementptr inbounds nuw %struct.jv_refcnt, ptr %7, i32 0, i32 0
  %9 = load i32, ptr %8, align 4, !tbaa !68
  %10 = icmp eq i32 %9, 0
  %11 = zext i1 %10 to i32
  ret i32 %11
}

; Function Attrs: nounwind uwtable
define internal void @jvp_number_free(i64 %0, ptr %1) #0 {
  %3 = alloca %struct.jv, align 8
  %4 = alloca ptr, align 8
  %5 = getelementptr inbounds nuw { i64, ptr }, ptr %3, i32 0, i32 0
  store i64 %0, ptr %5, align 8
  %6 = getelementptr inbounds nuw { i64, ptr }, ptr %3, i32 0, i32 1
  store ptr %1, ptr %6, align 8
  %7 = getelementptr inbounds nuw %struct.jv, ptr %3, i32 0, i32 0
  %8 = load i8, ptr %7, align 8, !tbaa !4
  %9 = zext i8 %8 to i32
  %10 = icmp eq i32 %9, 148
  br i1 %10, label %11, label %32

11:                                               ; preds = %2
  %12 = getelementptr inbounds nuw %struct.jv, ptr %3, i32 0, i32 4
  %13 = load ptr, ptr %12, align 8, !tbaa !12
  %14 = call i32 @jvp_refcnt_dec(ptr noundef %13)
  %15 = icmp ne i32 %14, 0
  br i1 %15, label %16, label %32

16:                                               ; preds = %11
  call void @llvm.lifetime.start.p0(i64 8, ptr %4) #11
  %17 = getelementptr inbounds nuw { i64, ptr }, ptr %3, i32 0, i32 0
  %18 = load i64, ptr %17, align 8
  %19 = getelementptr inbounds nuw { i64, ptr }, ptr %3, i32 0, i32 1
  %20 = load ptr, ptr %19, align 8
  %21 = call ptr @jvp_literal_number_ptr(i64 %18, ptr %20)
  store ptr %21, ptr %4, align 8, !tbaa !14
  %22 = load ptr, ptr %4, align 8, !tbaa !14
  %23 = getelementptr inbounds nuw %struct.jvp_literal_number, ptr %22, i32 0, i32 2
  %24 = load ptr, ptr %23, align 8, !tbaa !24
  %25 = icmp ne ptr %24, null
  br i1 %25, label %26, label %30

26:                                               ; preds = %16
  %27 = load ptr, ptr %4, align 8, !tbaa !14
  %28 = getelementptr inbounds nuw %struct.jvp_literal_number, ptr %27, i32 0, i32 2
  %29 = load ptr, ptr %28, align 8, !tbaa !24
  call void @jv_mem_free(ptr noundef %29)
  br label %30

30:                                               ; preds = %26, %16
  %31 = load ptr, ptr %4, align 8, !tbaa !14
  call void @jv_mem_free(ptr noundef %31)
  call void @llvm.lifetime.end.p0(i64 8, ptr %4) #11
  br label %32

32:                                               ; preds = %30, %11, %2
  ret void
}

; Function Attrs: nounwind uwtable
define internal void @jvp_invalid_free(i64 %0, ptr %1) #0 {
  %3 = alloca %struct.jv, align 8
  %4 = getelementptr inbounds nuw { i64, ptr }, ptr %3, i32 0, i32 0
  store i64 %0, ptr %4, align 8
  %5 = getelementptr inbounds nuw { i64, ptr }, ptr %3, i32 0, i32 1
  store ptr %1, ptr %5, align 8
  %6 = getelementptr inbounds nuw %struct.jv, ptr %3, i32 0, i32 0
  %7 = load i8, ptr %6, align 8, !tbaa !4
  %8 = zext i8 %7 to i32
  %9 = icmp eq i32 %8, 128
  br i1 %9, label %10, label %25

10:                                               ; preds = %2
  %11 = getelementptr inbounds nuw %struct.jv, ptr %3, i32 0, i32 4
  %12 = load ptr, ptr %11, align 8, !tbaa !12
  %13 = call i32 @jvp_refcnt_dec(ptr noundef %12)
  %14 = icmp ne i32 %13, 0
  br i1 %14, label %15, label %25

15:                                               ; preds = %10
  %16 = getelementptr inbounds nuw %struct.jv, ptr %3, i32 0, i32 4
  %17 = load ptr, ptr %16, align 8, !tbaa !12
  %18 = getelementptr inbounds nuw %struct.jvp_invalid, ptr %17, i32 0, i32 1
  %19 = getelementptr inbounds nuw { i64, ptr }, ptr %18, i32 0, i32 0
  %20 = load i64, ptr %19, align 8
  %21 = getelementptr inbounds nuw { i64, ptr }, ptr %18, i32 0, i32 1
  %22 = load ptr, ptr %21, align 8
  call void @jv_free(i64 %20, ptr %22)
  %23 = getelementptr inbounds nuw %struct.jv, ptr %3, i32 0, i32 4
  %24 = load ptr, ptr %23, align 8, !tbaa !12
  call void @jv_mem_free(ptr noundef %24)
  br label %25

25:                                               ; preds = %15, %10, %2
  ret void
}

; Function Attrs: nounwind uwtable
define internal void @jvp_object_free(i64 %0, ptr %1) #0 {
  %3 = alloca %struct.jv, align 8
  %4 = alloca i32, align 4
  %5 = alloca ptr, align 8
  %6 = getelementptr inbounds nuw { i64, ptr }, ptr %3, i32 0, i32 0
  store i64 %0, ptr %6, align 8
  %7 = getelementptr inbounds nuw { i64, ptr }, ptr %3, i32 0, i32 1
  store ptr %1, ptr %7, align 8
  %8 = getelementptr inbounds nuw %struct.jv, ptr %3, i32 0, i32 4
  %9 = load ptr, ptr %8, align 8, !tbaa !12
  %10 = call i32 @jvp_refcnt_dec(ptr noundef %9)
  %11 = icmp ne i32 %10, 0
  br i1 %11, label %12, label %60

12:                                               ; preds = %2
  call void @llvm.lifetime.start.p0(i64 4, ptr %4) #11
  store i32 0, ptr %4, align 4, !tbaa !10
  br label %13

13:                                               ; preds = %51, %12
  %14 = load i32, ptr %4, align 4, !tbaa !10
  %15 = getelementptr inbounds nuw { i64, ptr }, ptr %3, i32 0, i32 0
  %16 = load i64, ptr %15, align 8
  %17 = getelementptr inbounds nuw { i64, ptr }, ptr %3, i32 0, i32 1
  %18 = load ptr, ptr %17, align 8
  %19 = call i32 @jvp_object_size(i64 %16, ptr %18)
  %20 = icmp slt i32 %14, %19
  br i1 %20, label %22, label %21

21:                                               ; preds = %13
  call void @llvm.lifetime.end.p0(i64 4, ptr %4) #11
  br label %54

22:                                               ; preds = %13
  call void @llvm.lifetime.start.p0(i64 8, ptr %5) #11
  %23 = load i32, ptr %4, align 4, !tbaa !10
  %24 = getelementptr inbounds nuw { i64, ptr }, ptr %3, i32 0, i32 0
  %25 = load i64, ptr %24, align 8
  %26 = getelementptr inbounds nuw { i64, ptr }, ptr %3, i32 0, i32 1
  %27 = load ptr, ptr %26, align 8
  %28 = call ptr @jvp_object_get_slot(i64 %25, ptr %27, i32 noundef %23)
  store ptr %28, ptr %5, align 8, !tbaa !74
  %29 = load ptr, ptr %5, align 8, !tbaa !74
  %30 = getelementptr inbounds nuw %struct.object_slot, ptr %29, i32 0, i32 2
  %31 = getelementptr inbounds nuw { i64, ptr }, ptr %30, i32 0, i32 0
  %32 = load i64, ptr %31, align 8
  %33 = getelementptr inbounds nuw { i64, ptr }, ptr %30, i32 0, i32 1
  %34 = load ptr, ptr %33, align 8
  %35 = call i32 @jv_get_kind(i64 %32, ptr %34)
  %36 = icmp ne i32 %35, 1
  br i1 %36, label %37, label %50

37:                                               ; preds = %22
  %38 = load ptr, ptr %5, align 8, !tbaa !74
  %39 = getelementptr inbounds nuw %struct.object_slot, ptr %38, i32 0, i32 2
  %40 = getelementptr inbounds nuw { i64, ptr }, ptr %39, i32 0, i32 0
  %41 = load i64, ptr %40, align 8
  %42 = getelementptr inbounds nuw { i64, ptr }, ptr %39, i32 0, i32 1
  %43 = load ptr, ptr %42, align 8
  call void @jvp_string_free(i64 %41, ptr %43)
  %44 = load ptr, ptr %5, align 8, !tbaa !74
  %45 = getelementptr inbounds nuw %struct.object_slot, ptr %44, i32 0, i32 3
  %46 = getelementptr inbounds nuw { i64, ptr }, ptr %45, i32 0, i32 0
  %47 = load i64, ptr %46, align 8
  %48 = getelementptr inbounds nuw { i64, ptr }, ptr %45, i32 0, i32 1
  %49 = load ptr, ptr %48, align 8
  call void @jv_free(i64 %47, ptr %49)
  br label %50

50:                                               ; preds = %37, %22
  call void @llvm.lifetime.end.p0(i64 8, ptr %5) #11
  br label %51

51:                                               ; preds = %50
  %52 = load i32, ptr %4, align 4, !tbaa !10
  %53 = add nsw i32 %52, 1
  store i32 %53, ptr %4, align 4, !tbaa !10
  br label %13, !llvm.loop !86

54:                                               ; preds = %21
  %55 = getelementptr inbounds nuw { i64, ptr }, ptr %3, i32 0, i32 0
  %56 = load i64, ptr %55, align 8
  %57 = getelementptr inbounds nuw { i64, ptr }, ptr %3, i32 0, i32 1
  %58 = load ptr, ptr %57, align 8
  %59 = call ptr @jvp_object_ptr(i64 %56, ptr %58)
  call void @jv_mem_free(ptr noundef %59)
  br label %60

60:                                               ; preds = %54, %2
  ret void
}

; Function Attrs: nounwind uwtable
define internal void @jvp_string_free(i64 %0, ptr %1) #0 {
  %3 = alloca %struct.jv, align 8
  %4 = alloca ptr, align 8
  %5 = getelementptr inbounds nuw { i64, ptr }, ptr %3, i32 0, i32 0
  store i64 %0, ptr %5, align 8
  %6 = getelementptr inbounds nuw { i64, ptr }, ptr %3, i32 0, i32 1
  store ptr %1, ptr %6, align 8
  call void @llvm.lifetime.start.p0(i64 8, ptr %4) #11
  %7 = getelementptr inbounds nuw { i64, ptr }, ptr %3, i32 0, i32 0
  %8 = load i64, ptr %7, align 8
  %9 = getelementptr inbounds nuw { i64, ptr }, ptr %3, i32 0, i32 1
  %10 = load ptr, ptr %9, align 8
  %11 = call ptr @jvp_string_ptr(i64 %8, ptr %10)
  store ptr %11, ptr %4, align 8, !tbaa !14
  %12 = load ptr, ptr %4, align 8, !tbaa !14
  %13 = getelementptr inbounds nuw %struct.jvp_string, ptr %12, i32 0, i32 0
  %14 = call i32 @jvp_refcnt_dec(ptr noundef %13)
  %15 = icmp ne i32 %14, 0
  br i1 %15, label %16, label %18

16:                                               ; preds = %2
  %17 = load ptr, ptr %4, align 8, !tbaa !14
  call void @jv_mem_free(ptr noundef %17)
  br label %18

18:                                               ; preds = %16, %2
  call void @llvm.lifetime.end.p0(i64 8, ptr %4) #11
  ret void
}

; Function Attrs: nounwind uwtable
define internal void @jvp_array_free(i64 %0, ptr %1) #0 {
  %3 = alloca %struct.jv, align 8
  %4 = alloca ptr, align 8
  %5 = alloca i32, align 4
  %6 = getelementptr inbounds nuw { i64, ptr }, ptr %3, i32 0, i32 0
  store i64 %0, ptr %6, align 8
  %7 = getelementptr inbounds nuw { i64, ptr }, ptr %3, i32 0, i32 1
  store ptr %1, ptr %7, align 8
  %8 = getelementptr inbounds nuw %struct.jv, ptr %3, i32 0, i32 4
  %9 = load ptr, ptr %8, align 8, !tbaa !12
  %10 = call i32 @jvp_refcnt_dec(ptr noundef %9)
  %11 = icmp ne i32 %10, 0
  br i1 %11, label %12, label %40

12:                                               ; preds = %2
  call void @llvm.lifetime.start.p0(i64 8, ptr %4) #11
  %13 = getelementptr inbounds nuw { i64, ptr }, ptr %3, i32 0, i32 0
  %14 = load i64, ptr %13, align 8
  %15 = getelementptr inbounds nuw { i64, ptr }, ptr %3, i32 0, i32 1
  %16 = load ptr, ptr %15, align 8
  %17 = call ptr @jvp_array_ptr(i64 %14, ptr %16)
  store ptr %17, ptr %4, align 8, !tbaa !14
  call void @llvm.lifetime.start.p0(i64 4, ptr %5) #11
  store i32 0, ptr %5, align 4, !tbaa !10
  br label %18

18:                                               ; preds = %35, %12
  %19 = load i32, ptr %5, align 4, !tbaa !10
  %20 = load ptr, ptr %4, align 8, !tbaa !14
  %21 = getelementptr inbounds nuw %struct.jvp_array, ptr %20, i32 0, i32 1
  %22 = load i32, ptr %21, align 4, !tbaa !10
  %23 = icmp slt i32 %19, %22
  br i1 %23, label %25, label %24

24:                                               ; preds = %18
  call void @llvm.lifetime.end.p0(i64 4, ptr %5) #11
  br label %38

25:                                               ; preds = %18
  %26 = load ptr, ptr %4, align 8, !tbaa !14
  %27 = getelementptr inbounds nuw %struct.jvp_array, ptr %26, i32 0, i32 3
  %28 = load i32, ptr %5, align 4, !tbaa !10
  %29 = sext i32 %28 to i64
  %30 = getelementptr inbounds [0 x %struct.jv], ptr %27, i64 0, i64 %29
  %31 = getelementptr inbounds nuw { i64, ptr }, ptr %30, i32 0, i32 0
  %32 = load i64, ptr %31, align 8
  %33 = getelementptr inbounds nuw { i64, ptr }, ptr %30, i32 0, i32 1
  %34 = load ptr, ptr %33, align 8
  call void @jv_free(i64 %32, ptr %34)
  br label %35

35:                                               ; preds = %25
  %36 = load i32, ptr %5, align 4, !tbaa !10
  %37 = add nsw i32 %36, 1
  store i32 %37, ptr %5, align 4, !tbaa !10
  br label %18, !llvm.loop !85

38:                                               ; preds = %24
  %39 = load ptr, ptr %4, align 8, !tbaa !14
  call void @jv_mem_free(ptr noundef %39)
  call void @llvm.lifetime.end.p0(i64 8, ptr %4) #11
  br label %40

40:                                               ; preds = %38, %2
  ret void
}

; Function Attrs: nounwind uwtable
define dso_local void @jv_free(i64 %0, ptr %1) #0 {
  %3 = alloca %struct.jv, align 8
  %4 = getelementptr inbounds nuw { i64, ptr }, ptr %3, i32 0, i32 0
  store i64 %0, ptr %4, align 8
  %5 = getelementptr inbounds nuw { i64, ptr }, ptr %3, i32 0, i32 1
  store ptr %1, ptr %5, align 8
  %6 = getelementptr inbounds nuw %struct.jv, ptr %3, i32 0, i32 0
  %7 = load i8, ptr %6, align 8, !tbaa !4
  %8 = zext i8 %7 to i32
  %9 = and i32 %8, 15
  switch i32 %9, label %35 [
    i32 6, label %10
    i32 5, label %15
    i32 7, label %20
    i32 0, label %25
    i32 4, label %30
  ]

10:                                               ; preds = %2
  %11 = getelementptr inbounds nuw { i64, ptr }, ptr %3, i32 0, i32 0
  %12 = load i64, ptr %11, align 8
  %13 = getelementptr inbounds nuw { i64, ptr }, ptr %3, i32 0, i32 1
  %14 = load ptr, ptr %13, align 8
  call void @jvp_array_free(i64 %12, ptr %14)
  br label %35

15:                                               ; preds = %2
  %16 = getelementptr inbounds nuw { i64, ptr }, ptr %3, i32 0, i32 0
  %17 = load i64, ptr %16, align 8
  %18 = getelementptr inbounds nuw { i64, ptr }, ptr %3, i32 0, i32 1
  %19 = load ptr, ptr %18, align 8
  call void @jvp_string_free(i64 %17, ptr %19)
  br label %35

20:                                               ; preds = %2
  %21 = getelementptr inbounds nuw { i64, ptr }, ptr %3, i32 0, i32 0
  %22 = load i64, ptr %21, align 8
  %23 = getelementptr inbounds nuw { i64, ptr }, ptr %3, i32 0, i32 1
  %24 = load ptr, ptr %23, align 8
  call void @jvp_object_free(i64 %22, ptr %24)
  br label %35

25:                                               ; preds = %2
  %26 = getelementptr inbounds nuw { i64, ptr }, ptr %3, i32 0, i32 0
  %27 = load i64, ptr %26, align 8
  %28 = getelementptr inbounds nuw { i64, ptr }, ptr %3, i32 0, i32 1
  %29 = load ptr, ptr %28, align 8
  call void @jvp_invalid_free(i64 %27, ptr %29)
  br label %35

30:                                               ; preds = %2
  %31 = getelementptr inbounds nuw { i64, ptr }, ptr %3, i32 0, i32 0
  %32 = load i64, ptr %31, align 8
  %33 = getelementptr inbounds nuw { i64, ptr }, ptr %3, i32 0, i32 1
  %34 = load ptr, ptr %33, align 8
  call void @jvp_number_free(i64 %32, ptr %34)
  br label %35

35:                                               ; preds = %2, %30, %25, %20, %15, %10
  ret void
}