; Function Attrs: nounwind uwtable
define dso_local void @jv_free(i64 %0, ptr %1) local_unnamed_addr #2 {
  %3 = trunc i64 %0 to i32
  %4 = and i32 %3, 15
  switch i32 %4, label %common.ret53 [
    i32 6, label %5
    i32 5, label %20
    i32 7, label %23
    i32 0, label %44
    i32 4, label %55
  ]

5:                                                ; preds = %2
  %6 = load i32, ptr %1, align 4, !tbaa !9
  %7 = add nsw i32 %6, -1
  store i32 %7, ptr %1, align 4, !tbaa !9
  %.not50 = icmp eq i32 %7, 0
  br i1 %.not50, label %.preheader, label %common.ret53

.preheader:                                       ; preds = %5
  %8 = getelementptr inbounds nuw i8, ptr %1, i64 4
  %9 = load i32, ptr %8, align 4, !tbaa !4
  %10 = icmp sgt i32 %9, 0
  br i1 %10, label %.lr.ph, label %common.ret53.sink.split

.lr.ph:                                           ; preds = %.preheader
  %11 = getelementptr inbounds nuw i8, ptr %1, i64 16
  br label %12

12:                                               ; preds = %.lr.ph, %12
  %indvars.iv = phi i64 [ 0, %.lr.ph ], [ %indvars.iv.next, %12 ]
  %13 = getelementptr inbounds nuw [0 x %struct.jv], ptr %11, i64 0, i64 %indvars.iv
  %14 = load i64, ptr %13, align 8
  %15 = getelementptr inbounds nuw i8, ptr %13, i64 8
  %16 = load ptr, ptr %15, align 8
  tail call void @jv_free(i64 %14, ptr %16)
  %indvars.iv.next = add nuw nsw i64 %indvars.iv, 1
  %17 = load i32, ptr %8, align 4, !tbaa !4
  %18 = sext i32 %17 to i64
  %19 = icmp slt i64 %indvars.iv.next, %18
  br i1 %19, label %12, label %common.ret53.sink.split, !llvm.loop !11

20:                                               ; preds = %2
  %21 = load i32, ptr %1, align 4, !tbaa !9
  %22 = add nsw i32 %21, -1
  store i32 %22, ptr %1, align 4, !tbaa !9
  %.not.i47 = icmp eq i32 %22, 0
  br i1 %.not.i47, label %common.ret53.sink.split, label %common.ret53

23:                                               ; preds = %2
  %24 = load i32, ptr %1, align 4, !tbaa !9
  %25 = add nsw i32 %24, -1
  store i32 %25, ptr %1, align 4, !tbaa !9
  %.not.i = icmp eq i32 %25, 0
  br i1 %.not.i, label %.preheader.i, label %common.ret53

.preheader.i:                                     ; preds = %23
  %.sroa.1.0.extract.shift.i.i = lshr i64 %0, 32
  %.sroa.1.0.extract.trunc.i.i = trunc nuw i64 %.sroa.1.0.extract.shift.i.i to i32
  %26 = icmp sgt i32 %.sroa.1.0.extract.trunc.i.i, 0
  br i1 %26, label %.lr.ph.i, label %common.ret53.sink.split

.lr.ph.i:                                         ; preds = %.preheader.i
  %27 = getelementptr inbounds nuw i8, ptr %1, i64 8
  br label %28

28:                                               ; preds = %43, %.lr.ph.i
  %indvars.iv.i = phi i64 [ 0, %.lr.ph.i ], [ %indvars.iv.next.i, %43 ]
  %29 = getelementptr inbounds nuw [0 x %struct.object_slot], ptr %27, i64 0, i64 %indvars.iv.i
  %30 = getelementptr inbounds nuw i8, ptr %29, i64 8
  %31 = load i64, ptr %30, align 8
  %32 = and i64 %31, 15
  %.not10.i = icmp eq i64 %32, 1
  br i1 %.not10.i, label %43, label %33

33:                                               ; preds = %28
  %34 = getelementptr inbounds nuw i8, ptr %29, i64 16
  %35 = load ptr, ptr %34, align 8
  %36 = load i32, ptr %35, align 4, !tbaa !9
  %37 = add nsw i32 %36, -1
  store i32 %37, ptr %35, align 4, !tbaa !9
  %.not.i.i = icmp eq i32 %37, 0
  br i1 %.not.i.i, label %38, label %jvp_string_free.exit.i

38:                                               ; preds = %33
  tail call void @jv_mem_free(ptr noundef nonnull %35) #25
  br label %jvp_string_free.exit.i

jvp_string_free.exit.i:                           ; preds = %38, %33
  %39 = getelementptr inbounds nuw i8, ptr %29, i64 24
  %40 = load i64, ptr %39, align 8
  %41 = getelementptr inbounds nuw i8, ptr %29, i64 32
  %42 = load ptr, ptr %41, align 8
  tail call void @jv_free(i64 %40, ptr %42)
  br label %43

43:                                               ; preds = %jvp_string_free.exit.i, %28
  %indvars.iv.next.i = add nuw nsw i64 %indvars.iv.i, 1
  %exitcond.not.i = icmp eq i64 %indvars.iv.next.i, %.sroa.1.0.extract.shift.i.i
  br i1 %exitcond.not.i, label %common.ret53.sink.split, label %28, !llvm.loop !13

44:                                               ; preds = %2
  %45 = and i64 %0, 255
  %46 = icmp eq i64 %45, 128
  br i1 %46, label %47, label %common.ret53

47:                                               ; preds = %44
  %48 = load i32, ptr %1, align 4, !tbaa !9
  %49 = add nsw i32 %48, -1
  store i32 %49, ptr %1, align 4, !tbaa !9
  %.not = icmp eq i32 %49, 0
  br i1 %.not, label %50, label %common.ret53

common.ret53.sink.split:                          ; preds = %43, %12, %.preheader.i, %20, %.preheader, %61, %64, %50
  tail call void @jv_mem_free(ptr noundef nonnull %1) #25
  br label %common.ret53

common.ret53:                                     ; preds = %common.ret53.sink.split, %58, %55, %47, %44, %20, %5, %2, %23
  ret void

50:                                               ; preds = %47
  %51 = getelementptr inbounds nuw i8, ptr %1, i64 8
  %52 = load i64, ptr %51, align 8
  %53 = getelementptr inbounds nuw i8, ptr %1, i64 16
  %54 = load ptr, ptr %53, align 8
  tail call void @jv_free(i64 %52, ptr %54)
  br label %common.ret53.sink.split

55:                                               ; preds = %2
  %56 = and i64 %0, 255
  %57 = icmp eq i64 %56, 148
  br i1 %57, label %58, label %common.ret53

58:                                               ; preds = %55
  %59 = load i32, ptr %1, align 4, !tbaa !9
  %60 = add nsw i32 %59, -1
  store i32 %60, ptr %1, align 4, !tbaa !9
  %.not.i49 = icmp eq i32 %60, 0
  br i1 %.not.i49, label %61, label %common.ret53

61:                                               ; preds = %58
  %62 = getelementptr inbounds nuw i8, ptr %1, i64 16
  %63 = load ptr, ptr %62, align 8, !tbaa !14
  %.not6.i = icmp eq ptr %63, null
  br i1 %.not6.i, label %common.ret53.sink.split, label %64

64:                                               ; preds = %61
  tail call void @jv_mem_free(ptr noundef nonnull %63) #25
  br label %common.ret53.sink.split
}